target datalayout = "e-m:e-p270:32:32-p271:32:32-p272:64:64-i64:64-i128:128-f80:128-n8:16:32:64-S128"
target triple = "x86_64-pc-linux-gnu"

%"class.icu_77::EraRules" = type { %"class.icu_77::LocalMemory", i32, i32 }
%"class.icu_77::LocalMemory" = type { %"class.icu_77::LocalPointerBase" }
%"class.icu_77::LocalPointerBase" = type { ptr }

; Function Attrs: mustprogress nounwind uwtable
define linkonce_odr noundef nonnull align 4 dereferenceable(4) ptr @_ZNK6icu_7711LocalMemoryIiEixEl(ptr noundef nonnull align 8 dereferenceable(8) %0, i64 noundef %1) #1 comdat align 2 {
  %3 = alloca ptr, align 8
  %4 = alloca i64, align 8
  store ptr %0, ptr %3, align 8, !tbaa !8
  store i64 %1, ptr %4, align 8, !tbaa !48
  %5 = load ptr, ptr %3, align 8
  %6 = getelementptr inbounds nuw %"class.icu_77::LocalPointerBase", ptr %5, i32 0, i32 0
  %7 = load ptr, ptr %6, align 8, !tbaa !18
  %8 = load i64, ptr %4, align 8, !tbaa !48
  %9 = getelementptr inbounds i32, ptr %7, i64 %8
  ret ptr %9
}

; Function Attrs: mustprogress nounwind uwtable
define internal noundef i32 @_ZN6icu_77L10encodeDateEiii(i32 noundef %0, i32 noundef %1, i32 noundef %2) #1 {
  %4 = alloca i32, align 4
  %5 = alloca i32, align 4
  %6 = alloca i32, align 4
  store i32 %0, ptr %4, align 4, !tbaa !10
  store i32 %1, ptr %5, align 4, !tbaa !10
  store i32 %2, ptr %6, align 4, !tbaa !10
  %7 = load i32, ptr %4, align 4, !tbaa !10
  %8 = shl i32 %7, 16
  %9 = load i32, ptr %5, align 4, !tbaa !10
  %10 = shl i32 %9, 8
  %11 = or i32 %8, %10
  %12 = load i32, ptr %6, align 4, !tbaa !10
  %13 = or i32 %11, %12
  ret i32 %13
}

; Function Attrs: inlinehint mustprogress nounwind uwtable
define internal noundef signext i8 @_ZL9U_FAILURE10UErrorCode(i32 noundef %0) #2 {
  %2 = alloca i32, align 4
  store i32 %0, ptr %2, align 4, !tbaa !19
  %3 = load i32, ptr %2, align 4, !tbaa !19
  %4 = icmp sgt i32 %3, 0
  %5 = zext i1 %4 to i8
  ret i8 %5
}

; Function Attrs: mustprogress uwtable
define void @_ZN6icu_778EraRules14initCurrentEraEv(ptr noundef nonnull align 8 dereferenceable(16) %0) #0 align 2 {
  %2 = alloca ptr, align 8
  %3 = alloca i32, align 4
  %4 = alloca double, align 8
  %5 = alloca i32, align 4
  %6 = alloca i32, align 4
  %7 = alloca ptr, align 8
  %8 = alloca i32, align 4
  %9 = alloca i32, align 4
  %10 = alloca i8, align 1
  %11 = alloca i8, align 1
  %12 = alloca i32, align 4
  %13 = alloca i32, align 4
  %14 = alloca i32, align 4
  store ptr %0, ptr %2, align 8, !tbaa !3
  %15 = load ptr, ptr %2, align 8
  call void @llvm.lifetime.start.p0(i64 4, ptr %3) #10
  store i32 0, ptr %3, align 4, !tbaa !19
  call void @llvm.lifetime.start.p0(i64 8, ptr %4) #10
  %16 = call double @ucal_getNow_77()
  store double %16, ptr %4, align 8, !tbaa !21
  call void @llvm.lifetime.start.p0(i64 4, ptr %5) #10
  call void @llvm.lifetime.start.p0(i64 4, ptr %6) #10
  call void @llvm.lifetime.start.p0(i64 8, ptr %7) #10
  %17 = call noundef ptr @_ZN6icu_778TimeZone13createDefaultEv()
  store ptr %17, ptr %7, align 8, !tbaa !23
  %18 = load ptr, ptr %7, align 8, !tbaa !23
  %19 = icmp ne ptr %18, null
  br i1 %19, label %20, label %39

20:                                               ; preds = %1
  %21 = load ptr, ptr %7, align 8, !tbaa !23
  %22 = load double, ptr %4, align 8, !tbaa !21
  %23 = load ptr, ptr %21, align 8, !tbaa !25
  %24 = getelementptr inbounds ptr, ptr %23, i64 6
  %25 = load ptr, ptr %24, align 8
  call void %25(ptr noundef nonnull align 8 dereferenceable(72) %21, double noundef %22, i8 noundef signext 0, ptr noundef nonnull align 4 dereferenceable(4) %5, ptr noundef nonnull align 4 dereferenceable(4) %6, ptr noundef nonnull align 4 dereferenceable(4) %3)
  %26 = load ptr, ptr %7, align 8, !tbaa !23
  %27 = icmp eq ptr %26, null
  br i1 %27, label %32, label %28

28:                                               ; preds = %20
  %29 = load ptr, ptr %26, align 8, !tbaa !25
  %30 = getelementptr inbounds ptr, ptr %29, i64 1
  %31 = load ptr, ptr %30, align 8
  call void %31(ptr noundef nonnull align 8 dereferenceable(72) %26) #10
  br label %32

32:                                               ; preds = %28, %20
  %33 = load i32, ptr %5, align 4, !tbaa !10
  %34 = load i32, ptr %6, align 4, !tbaa !10
  %35 = add nsw i32 %33, %34
  %36 = sitofp i32 %35 to double
  %37 = load double, ptr %4, align 8, !tbaa !21
  %38 = fadd double %37, %36
  store double %38, ptr %4, align 8, !tbaa !21
  br label %39

39:                                               ; preds = %32, %1
  call void @llvm.lifetime.start.p0(i64 4, ptr %8) #10
  call void @llvm.lifetime.start.p0(i64 4, ptr %9) #10
  call void @llvm.lifetime.start.p0(i64 1, ptr %10) #10
  call void @llvm.lifetime.start.p0(i64 1, ptr %11) #10
  %40 = load double, ptr %4, align 8, !tbaa !21
  call void @_ZN6icu_775Grego12timeToFieldsEdRiRaS2_S1_R10UErrorCode(double noundef %40, ptr noundef nonnull align 4 dereferenceable(4) %8, ptr noundef nonnull align 1 dereferenceable(1) %10, ptr noundef nonnull align 1 dereferenceable(1) %11, ptr noundef nonnull align 4 dereferenceable(4) %9, ptr noundef nonnull align 4 dereferenceable(4) %3)
  %41 = load i32, ptr %3, align 4, !tbaa !19
  %42 = call noundef signext i8 @_ZL9U_FAILURE10UErrorCode(i32 noundef %41)
  %43 = icmp ne i8 %42, 0
  br i1 %43, label %44, label %45

44:                                               ; preds = %39
  store i32 1, ptr %12, align 4
  br label %74

45:                                               ; preds = %39
  call void @llvm.lifetime.start.p0(i64 4, ptr %13) #10
  %46 = load i32, ptr %8, align 4, !tbaa !10
  %47 = load i8, ptr %10, align 1, !tbaa !27
  %48 = sext i8 %47 to i32
  %49 = add nsw i32 %48, 1
  %50 = load i8, ptr %11, align 1, !tbaa !27
  %51 = sext i8 %50 to i32
  %52 = call noundef i32 @_ZN6icu_77L10encodeDateEiii(i32 noundef %46, i32 noundef %49, i32 noundef %51)
  store i32 %52, ptr %13, align 4, !tbaa !10
  call void @llvm.lifetime.start.p0(i64 4, ptr %14) #10
  %53 = getelementptr inbounds nuw %"class.icu_77::EraRules", ptr %15, i32 0, i32 1
  %54 = load i32, ptr %53, align 8, !tbaa !12
  %55 = sub nsw i32 %54, 1
  store i32 %55, ptr %14, align 4, !tbaa !10
  br label %56

56:                                               ; preds = %68, %45
  %57 = load i32, ptr %14, align 4, !tbaa !10
  %58 = icmp sgt i32 %57, 0
  br i1 %58, label %59, label %71

59:                                               ; preds = %56
  %60 = load i32, ptr %13, align 4, !tbaa !10
  %61 = getelementptr inbounds nuw %"class.icu_77::EraRules", ptr %15, i32 0, i32 0
  %62 = load i32, ptr %14, align 4, !tbaa !10
  %63 = sext i32 %62 to i64
  %64 = call noundef nonnull align 4 dereferenceable(4) ptr @_ZNK6icu_7711LocalMemoryIiEixEl(ptr noundef nonnull align 8 dereferenceable(8) %61, i64 noundef %63)
  %65 = load i32, ptr %64, align 4, !tbaa !10
  %66 = icmp sge i32 %60, %65
  br i1 %66, label %67, label %68

67:                                               ; preds = %59
  br label %71

68:                                               ; preds = %59
  %69 = load i32, ptr %14, align 4, !tbaa !10
  %70 = add nsw i32 %69, -1
  store i32 %70, ptr %14, align 4, !tbaa !10
  br label %56, !llvm.loop !28

71:                                               ; preds = %67, %56
  %72 = load i32, ptr %14, align 4, !tbaa !10
  %73 = getelementptr inbounds nuw %"class.icu_77::EraRules", ptr %15, i32 0, i32 2
  store i32 %72, ptr %73, align 4, !tbaa !30
  call void @llvm.lifetime.end.p0(i64 4, ptr %14) #10
  call void @llvm.lifetime.end.p0(i64 4, ptr %13) #10
  store i32 0, ptr %12, align 4
  br label %74

74:                                               ; preds = %71, %44
  call void @llvm.lifetime.end.p0(i64 1, ptr %11) #10
  call void @llvm.lifetime.end.p0(i64 1, ptr %10) #10
  call void @llvm.lifetime.end.p0(i64 4, ptr %9) #10
  call void @llvm.lifetime.end.p0(i64 4, ptr %8) #10
  call void @llvm.lifetime.end.p0(i64 8, ptr %7) #10
  call void @llvm.lifetime.end.p0(i64 4, ptr %6) #10
  call void @llvm.lifetime.end.p0(i64 4, ptr %5) #10
  call void @llvm.lifetime.end.p0(i64 8, ptr %4) #10
  call void @llvm.lifetime.end.p0(i64 4, ptr %3) #10
  %75 = load i32, ptr %12, align 4
  switch i32 %75, label %77 [
    i32 0, label %76
    i32 1, label %76
  ]

76:                                               ; preds = %74, %74
  ret void

77:                                               ; preds = %74
  unreachable
}