; Function Attrs: mustprogress uwtable
define void @_ZN6icu_778EraRules14initCurrentEraEv(ptr noundef nonnull align 8 captures(none) dereferenceable(16) %0) local_unnamed_addr #0 align 2 {
  %2 = alloca i32, align 4
  %3 = alloca i32, align 4
  %4 = alloca i32, align 4
  %5 = alloca i32, align 4
  %6 = alloca i32, align 4
  %7 = alloca i8, align 1
  %8 = alloca i8, align 1
  call void @llvm.lifetime.start.p0(i64 4, ptr nonnull %2) #15
  store i32 0, ptr %2, align 4, !tbaa !13
  %9 = tail call double @ucal_getNow_77()
  call void @llvm.lifetime.start.p0(i64 4, ptr nonnull %3) #15
  call void @llvm.lifetime.start.p0(i64 4, ptr nonnull %4) #15
  %10 = tail call noundef ptr @_ZN6icu_778TimeZone13createDefaultEv()
  %.not = icmp eq ptr %10, null
  br i1 %.not, label %23, label %11

11:                                               ; preds = %1
  %12 = load ptr, ptr %10, align 8, !tbaa !15
  %13 = getelementptr inbounds nuw i8, ptr %12, i64 48
  %14 = load ptr, ptr %13, align 8
  call void %14(ptr noundef nonnull align 8 dereferenceable(72) %10, double noundef %9, i8 noundef signext 0, ptr noundef nonnull align 4 dereferenceable(4) %3, ptr noundef nonnull align 4 dereferenceable(4) %4, ptr noundef nonnull align 4 dereferenceable(4) %2)
  %15 = load ptr, ptr %10, align 8, !tbaa !15
  %16 = getelementptr inbounds nuw i8, ptr %15, i64 8
  %17 = load ptr, ptr %16, align 8
  call void %17(ptr noundef nonnull align 8 dereferenceable(72) %10) #15
  %18 = load i32, ptr %3, align 4, !tbaa !17
  %19 = load i32, ptr %4, align 4, !tbaa !17
  %20 = add nsw i32 %19, %18
  %21 = sitofp i32 %20 to double
  %22 = fadd double %9, %21
  br label %23

23:                                               ; preds = %11, %1
  %.011 = phi double [ %22, %11 ], [ %9, %1 ]
  call void @llvm.lifetime.start.p0(i64 4, ptr nonnull %5) #15
  call void @llvm.lifetime.start.p0(i64 4, ptr nonnull %6) #15
  call void @llvm.lifetime.start.p0(i64 1, ptr nonnull %7) #15
  call void @llvm.lifetime.start.p0(i64 1, ptr nonnull %8) #15
  call void @_ZN6icu_775Grego12timeToFieldsEdRiRaS2_S1_R10UErrorCode(double noundef %.011, ptr noundef nonnull align 4 dereferenceable(4) %5, ptr noundef nonnull align 1 dereferenceable(1) %7, ptr noundef nonnull align 1 dereferenceable(1) %8, ptr noundef nonnull align 4 dereferenceable(4) %6, ptr noundef nonnull align 4 dereferenceable(4) %2)
  %24 = load i32, ptr %2, align 4, !tbaa !13
  %25 = icmp slt i32 %24, 1
  br i1 %25, label %26, label %50

26:                                               ; preds = %23
  %27 = load i32, ptr %5, align 4, !tbaa !17
  %28 = load i8, ptr %7, align 1, !tbaa !18
  %29 = sext i8 %28 to i32
  %30 = load i8, ptr %8, align 1, !tbaa !18
  %31 = sext i8 %30 to i32
  %32 = shl i32 %27, 16
  %33 = shl nsw i32 %29, 8
  %34 = add nsw i32 %33, 256
  %35 = or i32 %32, %31
  %36 = or i32 %35, %34
  %37 = getelementptr inbounds nuw i8, ptr %0, i64 8
  %38 = load i32, ptr %37, align 8, !tbaa !9
  %39 = load ptr, ptr %0, align 8
  %40 = zext i32 %38 to i64
  %smin = call i32 @llvm.smin.i32(i32 %38, i32 1)
  %41 = add i32 %smin, -1
  br label %42

42:                                               ; preds = %45, %26
  %indvars.iv = phi i64 [ %indvars.iv.next, %45 ], [ %40, %26 ]
  %43 = trunc nuw i64 %indvars.iv to i32
  %44 = icmp sgt i32 %43, 1
  br i1 %44, label %45, label %.split.loop.exit16

45:                                               ; preds = %42
  %indvars.iv.next = add nsw i64 %indvars.iv, -1
  %46 = and i64 %indvars.iv.next, 4294967295
  %47 = getelementptr inbounds nuw i32, ptr %39, i64 %46
  %48 = load i32, ptr %47, align 4, !tbaa !17
  %.not14 = icmp slt i32 %36, %48
  br i1 %.not14, label %42, label %.split.loop.exit, !llvm.loop !19

.split.loop.exit:                                 ; preds = %45
  %indvars.le = trunc i64 %indvars.iv.next to i32
  br label %.split.loop.exit16

.split.loop.exit16:                               ; preds = %42, %.split.loop.exit
  %.0.lcssa = phi i32 [ %indvars.le, %.split.loop.exit ], [ %41, %42 ]
  %49 = getelementptr inbounds nuw i8, ptr %0, i64 12
  store i32 %.0.lcssa, ptr %49, align 4, !tbaa !21
  br label %50

50:                                               ; preds = %23, %.split.loop.exit16
  call void @llvm.lifetime.end.p0(i64 1, ptr nonnull %8) #15
  call void @llvm.lifetime.end.p0(i64 1, ptr nonnull %7) #15
  call void @llvm.lifetime.end.p0(i64 4, ptr nonnull %6) #15
  call void @llvm.lifetime.end.p0(i64 4, ptr nonnull %5) #15
  call void @llvm.lifetime.end.p0(i64 4, ptr nonnull %4) #15
  call void @llvm.lifetime.end.p0(i64 4, ptr nonnull %3) #15
  call void @llvm.lifetime.end.p0(i64 4, ptr nonnull %2) #15
  ret void
}